target datalayout = "e-m:e-p270:32:32-p271:32:32-p272:64:64-i64:64-i128:128-f80:128-n8:16:32:64-S128"
target triple = "x86_64-pc-linux-gnu"

; Function Attrs: mustprogress uwtable
define void @_Z13duAppendArrowP11duDebugDrawffffffffj(ptr noundef %0, float noundef %1, float noundef %2, float noundef %3, float noundef %4, float noundef %5, float noundef %6, float noundef %7, float noundef %8, i32 noundef %9) #2 {
  %11 = alloca ptr, align 8
  %12 = alloca float, align 4
  %13 = alloca float, align 4
  %14 = alloca float, align 4
  %15 = alloca float, align 4
  %16 = alloca float, align 4
  %17 = alloca float, align 4
  %18 = alloca float, align 4
  %19 = alloca float, align 4
  %20 = alloca i32, align 4
  %21 = alloca [3 x float], align 4
  %22 = alloca [3 x float], align 4
  store ptr %0, ptr %11, align 8
  store float %1, ptr %12, align 4
  store float %2, ptr %13, align 4
  store float %3, ptr %14, align 4
  store float %4, ptr %15, align 4
  store float %5, ptr %16, align 4
  store float %6, ptr %17, align 4
  store float %7, ptr %18, align 4
  store float %8, ptr %19, align 4
  store i32 %9, ptr %20, align 4
  %23 = load ptr, ptr %11, align 8
  %24 = icmp ne ptr %23, null
  br i1 %24, label %26, label %25

25:                                               ; preds = %10
  br label %72

26:                                               ; preds = %10
  %27 = load ptr, ptr %11, align 8
  %28 = load float, ptr %12, align 4
  %29 = load float, ptr %13, align 4
  %30 = load float, ptr %14, align 4
  %31 = load i32, ptr %20, align 4
  %32 = load ptr, ptr %27, align 8
  %33 = getelementptr inbounds ptr, ptr %32, i64 6
  %34 = load ptr, ptr %33, align 8
  call void %34(ptr noundef nonnull align 8 dereferenceable(8) %27, float noundef %28, float noundef %29, float noundef %30, i32 noundef %31)
  %35 = load ptr, ptr %11, align 8
  %36 = load float, ptr %15, align 4
  %37 = load float, ptr %16, align 4
  %38 = load float, ptr %17, align 4
  %39 = load i32, ptr %20, align 4
  %40 = load ptr, ptr %35, align 8
  %41 = getelementptr inbounds ptr, ptr %40, i64 6
  %42 = load ptr, ptr %41, align 8
  call void %42(ptr noundef nonnull align 8 dereferenceable(8) %35, float noundef %36, float noundef %37, float noundef %38, i32 noundef %39)
  %43 = getelementptr inbounds [3 x float], ptr %21, i64 0, i64 0
  %44 = load float, ptr %12, align 4
  store float %44, ptr %43, align 4
  %45 = getelementptr inbounds float, ptr %43, i64 1
  %46 = load float, ptr %13, align 4
  store float %46, ptr %45, align 4
  %47 = getelementptr inbounds float, ptr %45, i64 1
  %48 = load float, ptr %14, align 4
  store float %48, ptr %47, align 4
  %49 = getelementptr inbounds [3 x float], ptr %22, i64 0, i64 0
  %50 = load float, ptr %15, align 4
  store float %50, ptr %49, align 4
  %51 = getelementptr inbounds float, ptr %49, i64 1
  %52 = load float, ptr %16, align 4
  store float %52, ptr %51, align 4
  %53 = getelementptr inbounds float, ptr %51, i64 1
  %54 = load float, ptr %17, align 4
  store float %54, ptr %53, align 4
  %55 = load float, ptr %18, align 4
  %56 = fcmp ogt float %55, 0x3F50624DE0000000
  br i1 %56, label %57, label %63

57:                                               ; preds = %26
  %58 = load ptr, ptr %11, align 8
  %59 = getelementptr inbounds [3 x float], ptr %21, i64 0, i64 0
  %60 = getelementptr inbounds [3 x float], ptr %22, i64 0, i64 0
  %61 = load float, ptr %18, align 4
  %62 = load i32, ptr %20, align 4
  call void @_Z15appendArrowHeadP11duDebugDrawPKfS2_fj(ptr noundef %58, ptr noundef %59, ptr noundef %60, float noundef %61, i32 noundef %62)
  br label %63

63:                                               ; preds = %57, %26
  %64 = load float, ptr %19, align 4
  %65 = fcmp ogt float %64, 0x3F50624DE0000000
  br i1 %65, label %66, label %72

66:                                               ; preds = %63
  %67 = load ptr, ptr %11, align 8
  %68 = getelementptr inbounds [3 x float], ptr %22, i64 0, i64 0
  %69 = getelementptr inbounds [3 x float], ptr %21, i64 0, i64 0
  %70 = load float, ptr %19, align 4
  %71 = load i32, ptr %20, align 4
  call void @_Z15appendArrowHeadP11duDebugDrawPKfS2_fj(ptr noundef %67, ptr noundef %68, ptr noundef %69, float noundef %70, i32 noundef %71)
  br label %72

72:                                               ; preds = %66, %63, %25
  ret void
}

; Function Attrs: mustprogress uwtable
define void @_Z16duDebugDrawArrowP11duDebugDrawffffffffjf(ptr noundef %0, float noundef %1, float noundef %2, float noundef %3, float noundef %4, float noundef %5, float noundef %6, float noundef %7, float noundef %8, i32 noundef %9, float noundef %10) #2 {
  %12 = alloca ptr, align 8
  %13 = alloca float, align 4
  %14 = alloca float, align 4
  %15 = alloca float, align 4
  %16 = alloca float, align 4
  %17 = alloca float, align 4
  %18 = alloca float, align 4
  %19 = alloca float, align 4
  %20 = alloca float, align 4
  %21 = alloca i32, align 4
  %22 = alloca float, align 4
  store ptr %0, ptr %12, align 8
  store float %1, ptr %13, align 4
  store float %2, ptr %14, align 4
  store float %3, ptr %15, align 4
  store float %4, ptr %16, align 4
  store float %5, ptr %17, align 4
  store float %6, ptr %18, align 4
  store float %7, ptr %19, align 4
  store float %8, ptr %20, align 4
  store i32 %9, ptr %21, align 4
  store float %10, ptr %22, align 4
  %23 = load ptr, ptr %12, align 8
  %24 = icmp ne ptr %23, null
  br i1 %24, label %26, label %25

25:                                               ; preds = %11
  br label %46

26:                                               ; preds = %11
  %27 = load ptr, ptr %12, align 8
  %28 = load float, ptr %22, align 4
  %29 = load ptr, ptr %27, align 8
  %30 = getelementptr inbounds ptr, ptr %29, i64 4
  %31 = load ptr, ptr %30, align 8
  call void %31(ptr noundef nonnull align 8 dereferenceable(8) %27, i32 noundef 1, float noundef %28)
  %32 = load ptr, ptr %12, align 8
  %33 = load float, ptr %13, align 4
  %34 = load float, ptr %14, align 4
  %35 = load float, ptr %15, align 4
  %36 = load float, ptr %16, align 4
  %37 = load float, ptr %17, align 4
  %38 = load float, ptr %18, align 4
  %39 = load float, ptr %19, align 4
  %40 = load float, ptr %20, align 4
  %41 = load i32, ptr %21, align 4
  call void @_Z13duAppendArrowP11duDebugDrawffffffffj(ptr noundef %32, float noundef %33, float noundef %34, float noundef %35, float noundef %36, float noundef %37, float noundef %38, float noundef %39, float noundef %40, i32 noundef %41)
  %42 = load ptr, ptr %12, align 8
  %43 = load ptr, ptr %42, align 8
  %44 = getelementptr inbounds ptr, ptr %43, i64 9
  %45 = load ptr, ptr %44, align 8
  call void %45(ptr noundef nonnull align 8 dereferenceable(8) %42)
  br label %46

46:                                               ; preds = %26, %25
  ret void
}