; Function Attrs: mustprogress uwtable
define void @_Z16duDebugDrawArrowP11duDebugDrawffffffffjf(ptr noundef %0, float noundef %1, float noundef %2, float noundef %3, float noundef %4, float noundef %5, float noundef %6, float noundef %7, float noundef %8, i32 noundef %9, float noundef %10) local_unnamed_addr #4 {
  %12 = alloca [3 x float], align 4
  %13 = alloca [3 x float], align 4
  %.not = icmp eq ptr %0, null
  br i1 %.not, label %36, label %14

14:                                               ; preds = %11
  %15 = load ptr, ptr %0, align 8
  %16 = getelementptr inbounds i8, ptr %15, i64 32
  %17 = load ptr, ptr %16, align 8
  tail call void %17(ptr noundef nonnull align 8 dereferenceable(8) %0, i32 noundef 1, float noundef %10)
  call void @llvm.lifetime.start.p0(i64 12, ptr nonnull %12)
  call void @llvm.lifetime.start.p0(i64 12, ptr nonnull %13)
  %18 = load ptr, ptr %0, align 8
  %19 = getelementptr inbounds i8, ptr %18, i64 48
  %20 = load ptr, ptr %19, align 8
  tail call void %20(ptr noundef nonnull align 8 dereferenceable(8) %0, float noundef %1, float noundef %2, float noundef %3, i32 noundef %9)
  %21 = load ptr, ptr %0, align 8
  %22 = getelementptr inbounds i8, ptr %21, i64 48
  %23 = load ptr, ptr %22, align 8
  tail call void %23(ptr noundef nonnull align 8 dereferenceable(8) %0, float noundef %4, float noundef %5, float noundef %6, i32 noundef %9)
  store float %1, ptr %12, align 4
  %24 = getelementptr inbounds i8, ptr %12, i64 4
  store float %2, ptr %24, align 4
  %25 = getelementptr inbounds i8, ptr %12, i64 8
  store float %3, ptr %25, align 4
  store float %4, ptr %13, align 4
  %26 = getelementptr inbounds i8, ptr %13, i64 4
  store float %5, ptr %26, align 4
  %27 = getelementptr inbounds i8, ptr %13, i64 8
  store float %6, ptr %27, align 4
  %28 = fcmp ogt float %7, 0x3F50624DE0000000
  br i1 %28, label %29, label %30

29:                                               ; preds = %14
  call void @_Z15appendArrowHeadP11duDebugDrawPKfS2_fj(ptr noundef nonnull %0, ptr noundef nonnull %12, ptr noundef nonnull %13, float noundef %7, i32 noundef %9)
  br label %30

30:                                               ; preds = %29, %14
  %31 = fcmp ogt float %8, 0x3F50624DE0000000
  br i1 %31, label %32, label %_Z13duAppendArrowP11duDebugDrawffffffffj.exit

32:                                               ; preds = %30
  call void @_Z15appendArrowHeadP11duDebugDrawPKfS2_fj(ptr noundef nonnull %0, ptr noundef nonnull %13, ptr noundef nonnull %12, float noundef %8, i32 noundef %9)
  br label %_Z13duAppendArrowP11duDebugDrawffffffffj.exit

_Z13duAppendArrowP11duDebugDrawffffffffj.exit:    ; preds = %30, %32
  call void @llvm.lifetime.end.p0(i64 12, ptr nonnull %12)
  call void @llvm.lifetime.end.p0(i64 12, ptr nonnull %13)
  %33 = load ptr, ptr %0, align 8
  %34 = getelementptr inbounds i8, ptr %33, i64 72
  %35 = load ptr, ptr %34, align 8
  call void %35(ptr noundef nonnull align 8 dereferenceable(8) %0)
  br label %36

36:                                               ; preds = %11, %_Z13duAppendArrowP11duDebugDrawffffffffj.exit
  ret void
}